; Function Attrs: nounwind uwtable
define internal void @regdes(ptr noundef %0) #0 {
  %2 = getelementptr inbounds nuw i8, ptr %0, i64 408
  %3 = load volatile i64, ptr %2, align 8, !tbaa !109
  %4 = icmp eq i64 %3, 0
  br i1 %4, label %._crit_edge, label %.lr.ph

.lr.ph:                                           ; preds = %1
  %5 = getelementptr inbounds nuw i8, ptr %0, i64 384
  br label %6

6:                                                ; preds = %.lr.ph, %39
  %7 = load volatile i64, ptr %2, align 8, !tbaa !109
  %8 = add i64 %7, -1
  store volatile i64 %8, ptr %2, align 8, !tbaa !109
  %9 = load ptr, ptr %5, align 8, !tbaa !140
  %10 = getelementptr inbounds nuw i8, ptr %9, i64 128
  %11 = load volatile ptr, ptr %10, align 8, !tbaa !108
  %12 = getelementptr inbounds nuw i8, ptr %9, i64 120
  %13 = load volatile ptr, ptr %12, align 8, !tbaa !96
  %14 = getelementptr inbounds nuw i8, ptr %13, i64 128
  store volatile ptr %11, ptr %14, align 8, !tbaa !108
  %15 = load volatile ptr, ptr %12, align 8, !tbaa !96
  store ptr %15, ptr %5, align 8, !tbaa !140
  %16 = tail call i32 @pthread_mutex_lock(ptr noundef nonnull %9) #19
  %17 = icmp eq i32 %16, 35
  br i1 %17, label %18, label %pmix_obj_update.exit

18:                                               ; preds = %6
  %19 = tail call ptr @__errno_location() #22
  store i32 35, ptr %19, align 4, !tbaa !23
  tail call void @perror(ptr noundef nonnull @.str.86) #23
  tail call void @abort() #24
  unreachable

pmix_obj_update.exit:                             ; preds = %6
  %20 = getelementptr inbounds nuw i8, ptr %9, i64 48
  %21 = load i32, ptr %20, align 8, !tbaa !78
  %22 = add nsw i32 %21, -1
  store i32 %22, ptr %20, align 8, !tbaa !78
  %23 = tail call i32 @pthread_mutex_unlock(ptr noundef nonnull %9) #19
  %24 = icmp eq i32 %22, 0
  br i1 %24, label %25, label %39

25:                                               ; preds = %pmix_obj_update.exit
  %26 = getelementptr inbounds nuw i8, ptr %9, i64 40
  %27 = load ptr, ptr %26, align 8, !tbaa !77
  %28 = getelementptr inbounds nuw i8, ptr %27, i64 48
  %29 = load ptr, ptr %28, align 8, !tbaa !88
  %30 = load ptr, ptr %29, align 8, !tbaa !80
  %.not6.i = icmp eq ptr %30, null
  br i1 %.not6.i, label %pmix_obj_run_destructors.exit, label %.lr.ph.i

.lr.ph.i:                                         ; preds = %25, %.lr.ph.i
  %31 = phi ptr [ %33, %.lr.ph.i ], [ %30, %25 ]
  %.07.i = phi ptr [ %32, %.lr.ph.i ], [ %29, %25 ]
  tail call void %31(ptr noundef nonnull %9) #19
  %32 = getelementptr inbounds nuw i8, ptr %.07.i, i64 8
  %33 = load ptr, ptr %32, align 8, !tbaa !80
  %.not.i = icmp eq ptr %33, null
  br i1 %.not.i, label %pmix_obj_run_destructors.exit, label %.lr.ph.i, !llvm.loop !89

pmix_obj_run_destructors.exit:                    ; preds = %.lr.ph.i, %25
  %34 = getelementptr inbounds nuw i8, ptr %9, i64 96
  %35 = load ptr, ptr %34, align 8, !tbaa !90
  %.not9 = icmp eq ptr %35, null
  br i1 %.not9, label %38, label %36

36:                                               ; preds = %pmix_obj_run_destructors.exit
  %37 = getelementptr inbounds nuw i8, ptr %9, i64 56
  tail call void %35(ptr noundef nonnull %37, ptr noundef nonnull %9) #19
  br label %39

38:                                               ; preds = %pmix_obj_run_destructors.exit
  tail call void @free(ptr noundef nonnull %9) #19
  br label %39

39:                                               ; preds = %36, %38, %pmix_obj_update.exit
  %40 = load volatile i64, ptr %2, align 8, !tbaa !109
  %41 = icmp eq i64 %40, 0
  br i1 %41, label %._crit_edge, label %6, !llvm.loop !411

._crit_edge:                                      ; preds = %39, %1
  %42 = getelementptr inbounds nuw i8, ptr %0, i64 144
  %43 = getelementptr inbounds nuw i8, ptr %0, i64 184
  %44 = load ptr, ptr %43, align 8, !tbaa !77
  %45 = getelementptr inbounds nuw i8, ptr %44, i64 48
  %46 = load ptr, ptr %45, align 8, !tbaa !88
  %47 = load ptr, ptr %46, align 8, !tbaa !80
  %.not6.i11 = icmp eq ptr %47, null
  br i1 %.not6.i11, label %pmix_obj_run_destructors.exit15, label %.lr.ph.i12

.lr.ph.i12:                                       ; preds = %._crit_edge, %.lr.ph.i12
  %48 = phi ptr [ %50, %.lr.ph.i12 ], [ %47, %._crit_edge ]
  %.07.i13 = phi ptr [ %49, %.lr.ph.i12 ], [ %46, %._crit_edge ]
  tail call void %48(ptr noundef nonnull %42) #19
  %49 = getelementptr inbounds nuw i8, ptr %.07.i13, i64 8
  %50 = load ptr, ptr %49, align 8, !tbaa !80
  %.not.i14 = icmp eq ptr %50, null
  br i1 %.not.i14, label %pmix_obj_run_destructors.exit15, label %.lr.ph.i12, !llvm.loop !89

pmix_obj_run_destructors.exit15:                  ; preds = %.lr.ph.i12, %._crit_edge
  ret void
}